target datalayout = "e-m:e-p270:32:32-p271:32:32-p272:64:64-i64:64-i128:128-f80:128-n8:16:32:64-S128"
target triple = "x86_64-pc-linux-gnu"

%struct.ecx_key_st = type { ptr, ptr, i8, [57 x i8], ptr, i64, i32, %struct.CRYPTO_REF_COUNT }
%struct.CRYPTO_REF_COUNT = type { i32 }

@.str = private unnamed_addr constant [68 x i8] c"../openssl/providers/implementations/encode_decode/encode_key2any.c\00", align 1
@__func__.ecx_spki_pub_to_der = private unnamed_addr constant [20 x i8] c"ecx_spki_pub_to_der\00", align 1

; Function Attrs: nounwind uwtable
define internal i32 @ecx_spki_pub_to_der(ptr noundef %0, ptr noundef %1, ptr noundef %2) #0 {
  %4 = alloca i32, align 4
  %5 = alloca ptr, align 8
  %6 = alloca ptr, align 8
  %7 = alloca ptr, align 8
  %8 = alloca ptr, align 8
  %9 = alloca ptr, align 8
  %10 = alloca i32, align 4
  store ptr %0, ptr %5, align 8, !tbaa !3
  store ptr %1, ptr %6, align 8, !tbaa !40
  store ptr %2, ptr %7, align 8, !tbaa !3
  call void @llvm.lifetime.start.p0(i64 8, ptr %8) #4
  %11 = load ptr, ptr %5, align 8, !tbaa !3
  store ptr %11, ptr %8, align 8, !tbaa !59
  call void @llvm.lifetime.start.p0(i64 8, ptr %9) #4
  %12 = load ptr, ptr %8, align 8, !tbaa !59
  %13 = icmp eq ptr %12, null
  br i1 %13, label %14, label %15

14:                                               ; preds = %3
  call void @ERR_new()
  call void @ERR_set_debug(ptr noundef @.str, i32 noundef 796, ptr noundef @__func__.ecx_spki_pub_to_der)
  call void (i32, i32, ptr, ...) @ERR_set_error(i32 noundef 57, i32 noundef 786690, ptr noundef null)
  store i32 0, ptr %4, align 4
  store i32 1, ptr %10, align 4
  br label %33

15:                                               ; preds = %3
  %16 = load ptr, ptr %8, align 8, !tbaa !59
  %17 = getelementptr inbounds nuw %struct.ecx_key_st, ptr %16, i32 0, i32 3
  %18 = getelementptr inbounds [57 x i8], ptr %17, i64 0, i64 0
  %19 = load ptr, ptr %8, align 8, !tbaa !59
  %20 = getelementptr inbounds nuw %struct.ecx_key_st, ptr %19, i32 0, i32 5
  %21 = load i64, ptr %20, align 8, !tbaa !65
  %22 = call noalias ptr @CRYPTO_memdup(ptr noundef %18, i64 noundef %21, ptr noundef @.str, i32 noundef 800)
  store ptr %22, ptr %9, align 8, !tbaa !23
  %23 = load ptr, ptr %9, align 8, !tbaa !23
  %24 = icmp eq ptr %23, null
  br i1 %24, label %25, label %26

25:                                               ; preds = %15
  store i32 0, ptr %4, align 4
  store i32 1, ptr %10, align 4
  br label %33

26:                                               ; preds = %15
  %27 = load ptr, ptr %9, align 8, !tbaa !23
  %28 = load ptr, ptr %6, align 8, !tbaa !40
  store ptr %27, ptr %28, align 8, !tbaa !23
  %29 = load ptr, ptr %8, align 8, !tbaa !59
  %30 = getelementptr inbounds nuw %struct.ecx_key_st, ptr %29, i32 0, i32 5
  %31 = load i64, ptr %30, align 8, !tbaa !65
  %32 = trunc i64 %31 to i32
  store i32 %32, ptr %4, align 4
  store i32 1, ptr %10, align 4
  br label %33

33:                                               ; preds = %26, %25, %14
  call void @llvm.lifetime.end.p0(i64 8, ptr %9) #4
  call void @llvm.lifetime.end.p0(i64 8, ptr %8) #4
  %34 = load i32, ptr %4, align 4
  ret i32 %34
}