; Function Attrs: nounwind uwtable
define internal i32 @ecx_spki_pub_to_der(ptr noundef %0, ptr noundef writeonly captures(none) %1, ptr readnone captures(none) %2) #0 {
  %4 = icmp eq ptr %0, null
  br i1 %4, label %5, label %6

5:                                                ; preds = %3
  tail call void @ERR_new() #5
  tail call void @ERR_set_debug(ptr noundef nonnull @.str, i32 noundef 796, ptr noundef nonnull @__func__.ecx_spki_pub_to_der) #5
  tail call void (i32, i32, ptr, ...) @ERR_set_error(i32 noundef 57, i32 noundef 786690, ptr noundef null) #5
  br label %15

6:                                                ; preds = %3
  %7 = getelementptr inbounds nuw i8, ptr %0, i64 17
  %8 = getelementptr inbounds nuw i8, ptr %0, i64 88
  %9 = load i64, ptr %8, align 8, !tbaa !33
  %10 = tail call noalias ptr @CRYPTO_memdup(ptr noundef nonnull %7, i64 noundef %9, ptr noundef nonnull @.str, i32 noundef 800) #5
  %11 = icmp eq ptr %10, null
  br i1 %11, label %15, label %12

12:                                               ; preds = %6
  store ptr %10, ptr %1, align 8, !tbaa !16
  %13 = load i64, ptr %8, align 8, !tbaa !33
  %14 = trunc i64 %13 to i32
  br label %15

15:                                               ; preds = %6, %12, %5
  %.0 = phi i32 [ 0, %5 ], [ %14, %12 ], [ 0, %6 ]
  ret i32 %.0
}